target datalayout = "e-m:e-p270:32:32-p271:32:32-p272:64:64-i64:64-i128:128-f80:128-n8:16:32:64-S128"
target triple = "x86_64-unknown-linux-gnu"

%"class.std::__cxx11::basic_string" = type { %"struct.std::__cxx11::basic_string<char>::_Alloc_hider", i64, %union.anon }
%"struct.std::__cxx11::basic_string<char>::_Alloc_hider" = type { ptr }
%union.anon = type { i64, [8 x i8] }
%"class.std::__cxx11::basic_ostringstream" = type { %"class.std::basic_ostream.base", %"class.std::__cxx11::basic_stringbuf", %"class.std::basic_ios" }
%"class.std::basic_ostream.base" = type { ptr }
%"class.std::__cxx11::basic_stringbuf" = type { %"class.std::basic_streambuf", i32, %"class.std::__cxx11::basic_string" }
%"class.std::basic_streambuf" = type { ptr, ptr, ptr, ptr, ptr, ptr, ptr, %"class.std::locale" }
%"class.std::locale" = type { ptr }
%"class.std::basic_ios" = type { %"class.std::ios_base", ptr, i8, i8, ptr, ptr, ptr, ptr }
%"class.std::ios_base" = type { ptr, i64, i64, i32, i32, i32, ptr, %"struct.std::ios_base::_Words", [8 x %"struct.std::ios_base::_Words"], i32, ptr, %"class.std::locale" }
%"struct.std::ios_base::_Words" = type { ptr, i64 }

@.str.21 = private unnamed_addr constant [29 x i8] c"devtools://devtools/bundled/\00", align 1
@.str.22 = private unnamed_addr constant [10 x i8] c"inspector\00", align 1
@.str.23 = private unnamed_addr constant [7 x i8] c"js_app\00", align 1
@.str.24 = private unnamed_addr constant [39 x i8] c".html?experiments=true&v8only=true&ws=\00", align 1

; Function Attrs: mustprogress nounwind uwtable
define dso_local void @_ZN4node9inspector21InspectorSocketServer14GetFrontendURLEbRKNSt7__cxx1112basic_stringIcSt11char_traitsIcESaIcEEE(ptr noalias sret(%"class.std::__cxx11::basic_string") align 8 %agg.result, ptr noundef nonnull align 8 dereferenceable(148) %this, i1 noundef zeroext %is_compat, ptr noundef nonnull align 8 dereferenceable(32) %formatted_address) #0 align 2 {
entry:
  %result.ptr = alloca ptr, align 8
  %this.addr = alloca ptr, align 8
  %is_compat.addr = alloca i8, align 1
  %formatted_address.addr = alloca ptr, align 8
  %frontend_url = alloca %"class.std::__cxx11::basic_ostringstream", align 8
  store ptr %agg.result, ptr %result.ptr, align 8
  store ptr %this, ptr %this.addr, align 8
  %frombool = zext i1 %is_compat to i8
  store i8 %frombool, ptr %is_compat.addr, align 1
  store ptr %formatted_address, ptr %formatted_address.addr, align 8
  call void @_ZNSt7__cxx1119basic_ostringstreamIcSt11char_traitsIcESaIcEEC1Ev(ptr noundef nonnull align 8 dereferenceable(112) %frontend_url)
  %call = call noundef nonnull align 8 dereferenceable(8) ptr @_ZStlsISt11char_traitsIcEERSt13basic_ostreamIcT_ES5_PKc(ptr noundef nonnull align 8 dereferenceable(8) %frontend_url, ptr noundef @.str.21)
  %0 = load i8, ptr %is_compat.addr, align 1
  %tobool = trunc i8 %0 to i1
  %cond = select i1 %tobool, ptr @.str.22, ptr @.str.23
  %call2 = call noundef nonnull align 8 dereferenceable(8) ptr @_ZStlsISt11char_traitsIcEERSt13basic_ostreamIcT_ES5_PKc(ptr noundef nonnull align 8 dereferenceable(8) %frontend_url, ptr noundef %cond)
  %call3 = call noundef nonnull align 8 dereferenceable(8) ptr @_ZStlsISt11char_traitsIcEERSt13basic_ostreamIcT_ES5_PKc(ptr noundef nonnull align 8 dereferenceable(8) %frontend_url, ptr noundef @.str.24)
  %1 = load ptr, ptr %formatted_address.addr, align 8
  %call4 = call noundef nonnull align 8 dereferenceable(8) ptr @_ZStlsIcSt11char_traitsIcESaIcEERSt13basic_ostreamIT_T0_ES7_RKNSt7__cxx1112basic_stringIS4_S5_T1_EE(ptr noundef nonnull align 8 dereferenceable(8) %frontend_url, ptr noundef nonnull align 8 dereferenceable(32) %1)
  call void @_ZNKSt7__cxx1119basic_ostringstreamIcSt11char_traitsIcESaIcEE3strEv(ptr sret(%"class.std::__cxx11::basic_string") align 8 %agg.result, ptr noundef nonnull align 8 dereferenceable(112) %frontend_url)
  call void @_ZNSt7__cxx1119basic_ostringstreamIcSt11char_traitsIcESaIcEED1Ev(ptr noundef nonnull align 8 dereferenceable(112) %frontend_url) #12
  ret void
}